target datalayout = "e-m:e-p270:32:32-p271:32:32-p272:64:64-i64:64-i128:128-f80:128-n8:16:32:64-S128"
target triple = "x86_64-pc-linux-gnu"

@hf_nas_5gs_mm_nsag_info_len = internal global i32 0, align 4
@hf_nas_5gs_mm_nsag_id = internal global i32 0, align 4
@hf_nas_5gs_mm_nsag_info_s_nssai_len = internal global i32 0, align 4
@hf_nas_5gs_mm_nsag_prio = internal global i32 0, align 4
@hf_nas_5gs_mm_nsag_tais_list_len = internal global i32 0, align 4
@ett_nas_5gs_mm_nsag_info = internal global i32 0, align 4
@.str.1729 = private unnamed_addr constant [28 x i8] c"NSSRG values for S-NSSAI %u\00", align 1

; Function Attrs: null_pointer_is_valid sspstrong uwtable
define internal zeroext i16 @de_nas_5gs_mm_nsag_info(ptr noundef %0, ptr noundef %1, ptr noundef %2, i32 noundef %3, i32 noundef %4, ptr noundef %5, i32 noundef %6) #0 {
  %8 = alloca ptr, align 8
  %9 = alloca ptr, align 8
  %10 = alloca ptr, align 8
  %11 = alloca i32, align 4
  %12 = alloca i32, align 4
  %13 = alloca ptr, align 8
  %14 = alloca i32, align 4
  %15 = alloca i32, align 4
  %16 = alloca i32, align 4
  %17 = alloca ptr, align 8
  %18 = alloca ptr, align 8
  %19 = alloca i32, align 4
  %20 = alloca i32, align 4
  %21 = alloca i32, align 4
  store ptr %0, ptr %8, align 8
  store ptr %1, ptr %9, align 8
  store ptr %2, ptr %10, align 8
  store i32 %3, ptr %11, align 4
  store i32 %4, ptr %12, align 4
  store ptr %5, ptr %13, align 8
  store i32 %6, ptr %14, align 4
  call void @llvm.lifetime.start.p0(i64 4, ptr %15) #11
  %22 = load i32, ptr %11, align 4
  store i32 %22, ptr %15, align 4
  call void @llvm.lifetime.start.p0(i64 4, ptr %16) #11
  store i32 1, ptr %16, align 4
  br label %23

23:                                               ; preds = %93, %7
  %24 = load i32, ptr %15, align 4
  %25 = load i32, ptr %11, align 4
  %26 = sub i32 %24, %25
  %27 = load i32, ptr %12, align 4
  %28 = icmp ult i32 %26, %27
  br i1 %28, label %29, label %96

29:                                               ; preds = %23
  call void @llvm.lifetime.start.p0(i64 8, ptr %17) #11
  call void @llvm.lifetime.start.p0(i64 8, ptr %18) #11
  call void @llvm.lifetime.start.p0(i64 4, ptr %19) #11
  call void @llvm.lifetime.start.p0(i64 4, ptr %20) #11
  call void @llvm.lifetime.start.p0(i64 4, ptr %21) #11
  %30 = load ptr, ptr %9, align 8
  %31 = load ptr, ptr %8, align 8
  %32 = load i32, ptr %15, align 4
  %33 = load i32, ptr @ett_nas_5gs_mm_nsag_info, align 4
  %34 = load i32, ptr %16, align 4
  %35 = call ptr (ptr, ptr, i32, i32, i32, ptr, ptr, ...) @proto_tree_add_subtree_format(ptr noundef %30, ptr noundef %31, i32 noundef %32, i32 noundef -1, i32 noundef %33, ptr noundef %17, ptr noundef @.str.1729, i32 noundef %34)
  store ptr %35, ptr %18, align 8
  %36 = load ptr, ptr %18, align 8
  %37 = load i32, ptr @hf_nas_5gs_mm_nsag_info_len, align 4
  %38 = load ptr, ptr %8, align 8
  %39 = load i32, ptr %15, align 4
  %40 = call ptr @proto_tree_add_item_ret_uint(ptr noundef %36, i32 noundef %37, ptr noundef %38, i32 noundef %39, i32 noundef 1, i32 noundef 0, ptr noundef %19)
  %41 = load i32, ptr %15, align 4
  %42 = add i32 %41, 1
  store i32 %42, ptr %15, align 4
  %43 = load ptr, ptr %17, align 8
  %44 = load i32, ptr %19, align 4
  %45 = add i32 %44, 1
  call void @proto_item_set_len(ptr noundef %43, i32 noundef %45)
  %46 = load ptr, ptr %18, align 8
  %47 = load i32, ptr @hf_nas_5gs_mm_nsag_id, align 4
  %48 = load ptr, ptr %8, align 8
  %49 = load i32, ptr %15, align 4
  %50 = call ptr @proto_tree_add_item(ptr noundef %46, i32 noundef %47, ptr noundef %48, i32 noundef %49, i32 noundef 1, i32 noundef 0)
  %51 = load ptr, ptr %18, align 8
  %52 = load i32, ptr @hf_nas_5gs_mm_nsag_info_s_nssai_len, align 4
  %53 = load ptr, ptr %8, align 8
  %54 = load i32, ptr %15, align 4
  %55 = call ptr @proto_tree_add_item_ret_uint(ptr noundef %51, i32 noundef %52, ptr noundef %53, i32 noundef %54, i32 noundef 1, i32 noundef 0, ptr noundef %20)
  %56 = load i32, ptr %15, align 4
  %57 = add i32 %56, 1
  store i32 %57, ptr %15, align 4
  %58 = load ptr, ptr %8, align 8
  %59 = load ptr, ptr %18, align 8
  %60 = load ptr, ptr %10, align 8
  %61 = load i32, ptr %15, align 4
  %62 = load i32, ptr %20, align 4
  %63 = call zeroext i16 @de_nas_5gs_cmn_s_nssai(ptr noundef %58, ptr noundef %59, ptr noundef %60, i32 noundef %61, i32 noundef %62, ptr noundef null, i32 noundef 0)
  %64 = zext i16 %63 to i32
  %65 = load i32, ptr %15, align 4
  %66 = add i32 %65, %64
  store i32 %66, ptr %15, align 4
  %67 = load ptr, ptr %18, align 8
  %68 = load i32, ptr @hf_nas_5gs_mm_nsag_prio, align 4
  %69 = load ptr, ptr %8, align 8
  %70 = load i32, ptr %15, align 4
  %71 = call ptr @proto_tree_add_item(ptr noundef %67, i32 noundef %68, ptr noundef %69, i32 noundef %70, i32 noundef 1, i32 noundef 0)
  %72 = load i32, ptr %15, align 4
  %73 = add i32 %72, 1
  store i32 %73, ptr %15, align 4
  %74 = load ptr, ptr %18, align 8
  %75 = load i32, ptr @hf_nas_5gs_mm_nsag_tais_list_len, align 4
  %76 = load ptr, ptr %8, align 8
  %77 = load i32, ptr %15, align 4
  %78 = call ptr @proto_tree_add_item_ret_uint(ptr noundef %74, i32 noundef %75, ptr noundef %76, i32 noundef %77, i32 noundef 1, i32 noundef 0, ptr noundef %21)
  %79 = load i32, ptr %15, align 4
  %80 = add i32 %79, 1
  store i32 %80, ptr %15, align 4
  %81 = load i32, ptr %21, align 4
  %82 = icmp ne i32 %81, 0
  br i1 %82, label %83, label %93

83:                                               ; preds = %29
  %84 = load ptr, ptr %8, align 8
  %85 = load ptr, ptr %18, align 8
  %86 = load ptr, ptr %10, align 8
  %87 = load i32, ptr %15, align 4
  %88 = load i32, ptr %21, align 4
  %89 = call zeroext i16 @de_nas_5gs_mm_5gs_ta_id_list(ptr noundef %84, ptr noundef %85, ptr noundef %86, i32 noundef %87, i32 noundef %88, ptr noundef null, i32 noundef 0)
  %90 = zext i16 %89 to i32
  %91 = load i32, ptr %15, align 4
  %92 = add i32 %91, %90
  store i32 %92, ptr %15, align 4
  br label %93

93:                                               ; preds = %83, %29
  %94 = load i32, ptr %16, align 4
  %95 = add i32 %94, 1
  store i32 %95, ptr %16, align 4
  call void @llvm.lifetime.end.p0(i64 4, ptr %21) #11
  call void @llvm.lifetime.end.p0(i64 4, ptr %20) #11
  call void @llvm.lifetime.end.p0(i64 4, ptr %19) #11
  call void @llvm.lifetime.end.p0(i64 8, ptr %18) #11
  call void @llvm.lifetime.end.p0(i64 8, ptr %17) #11
  br label %23, !llvm.loop !44

96:                                               ; preds = %23
  %97 = load i32, ptr %12, align 4
  %98 = trunc i32 %97 to i16
  call void @llvm.lifetime.end.p0(i64 4, ptr %16) #11
  call void @llvm.lifetime.end.p0(i64 4, ptr %15) #11
  ret i16 %98
}