; Function Attrs: null_pointer_is_valid sspstrong uwtable
define internal noundef zeroext i16 @de_nas_5gs_mm_nsag_info(ptr noundef %0, ptr noundef %1, ptr noundef %2, i32 noundef %3, i32 noundef %4, ptr readnone captures(none) %5, i32 %6) #0 {
  %8 = alloca ptr, align 8
  %9 = alloca i32, align 4
  %10 = alloca i32, align 4
  %11 = alloca i32, align 4
  %.not43 = icmp eq i32 %4, 0
  br i1 %.not43, label %._crit_edge, label %.lr.ph

.lr.ph:                                           ; preds = %7, %40
  %.042 = phi i32 [ %.1, %40 ], [ %3, %7 ]
  %.03841 = phi i32 [ %41, %40 ], [ 1, %7 ]
  call void @llvm.lifetime.start.p0(i64 8, ptr nonnull %8) #12
  call void @llvm.lifetime.start.p0(i64 4, ptr nonnull %9) #12
  call void @llvm.lifetime.start.p0(i64 4, ptr nonnull %10) #12
  call void @llvm.lifetime.start.p0(i64 4, ptr nonnull %11) #12
  %12 = load i32, ptr @ett_nas_5gs_mm_nsag_info, align 4
  %13 = call ptr (ptr, ptr, i32, i32, i32, ptr, ptr, ...) @proto_tree_add_subtree_format(ptr noundef %1, ptr noundef %0, i32 noundef %.042, i32 noundef -1, i32 noundef %12, ptr noundef nonnull %8, ptr noundef nonnull @.str.1729, i32 noundef %.03841)
  %14 = load i32, ptr @hf_nas_5gs_mm_nsag_info_len, align 4
  %15 = call ptr @proto_tree_add_item_ret_uint(ptr noundef %13, i32 noundef %14, ptr noundef %0, i32 noundef %.042, i32 noundef 1, i32 noundef 0, ptr noundef nonnull %9)
  %16 = add i32 %.042, 1
  %17 = load ptr, ptr %8, align 8
  %18 = load i32, ptr %9, align 4
  %19 = add i32 %18, 1
  call void @proto_item_set_len(ptr noundef %17, i32 noundef %19)
  %20 = load i32, ptr @hf_nas_5gs_mm_nsag_id, align 4
  %21 = call ptr @proto_tree_add_item(ptr noundef %13, i32 noundef %20, ptr noundef %0, i32 noundef %16, i32 noundef 1, i32 noundef 0)
  %22 = load i32, ptr @hf_nas_5gs_mm_nsag_info_s_nssai_len, align 4
  %23 = call ptr @proto_tree_add_item_ret_uint(ptr noundef %13, i32 noundef %22, ptr noundef %0, i32 noundef %16, i32 noundef 1, i32 noundef 0, ptr noundef nonnull %10)
  %24 = add i32 %.042, 2
  %25 = load i32, ptr %10, align 4
  %26 = call zeroext i16 @de_nas_5gs_cmn_s_nssai(ptr noundef %0, ptr noundef %13, ptr poison, i32 noundef %24, i32 noundef %25, ptr poison, i32 poison)
  %27 = zext i16 %26 to i32
  %28 = add i32 %24, %27
  %29 = load i32, ptr @hf_nas_5gs_mm_nsag_prio, align 4
  %30 = call ptr @proto_tree_add_item(ptr noundef %13, i32 noundef %29, ptr noundef %0, i32 noundef %28, i32 noundef 1, i32 noundef 0)
  %31 = add i32 %28, 1
  %32 = load i32, ptr @hf_nas_5gs_mm_nsag_tais_list_len, align 4
  %33 = call ptr @proto_tree_add_item_ret_uint(ptr noundef %13, i32 noundef %32, ptr noundef %0, i32 noundef %31, i32 noundef 1, i32 noundef 0, ptr noundef nonnull %11)
  %34 = add i32 %28, 2
  %35 = load i32, ptr %11, align 4
  %.not = icmp eq i32 %35, 0
  br i1 %.not, label %40, label %36

36:                                               ; preds = %.lr.ph
  %37 = call zeroext i16 @de_nas_5gs_mm_5gs_ta_id_list(ptr noundef %0, ptr noundef %13, ptr noundef %2, i32 noundef %34, i32 noundef %35, ptr poison, i32 poison)
  %38 = zext i16 %37 to i32
  %39 = add i32 %34, %38
  br label %40

40:                                               ; preds = %36, %.lr.ph
  %.1 = phi i32 [ %39, %36 ], [ %34, %.lr.ph ]
  %41 = add i32 %.03841, 1
  call void @llvm.lifetime.end.p0(i64 4, ptr nonnull %11) #12
  call void @llvm.lifetime.end.p0(i64 4, ptr nonnull %10) #12
  call void @llvm.lifetime.end.p0(i64 4, ptr nonnull %9) #12
  call void @llvm.lifetime.end.p0(i64 8, ptr nonnull %8) #12
  %42 = sub i32 %.1, %3
  %43 = icmp ult i32 %42, %4
  br i1 %43, label %.lr.ph, label %._crit_edge, !llvm.loop !44

._crit_edge:                                      ; preds = %40, %7
  %44 = trunc i32 %4 to i16
  ret i16 %44
}